target datalayout = "e-m:e-p270:32:32-p271:32:32-p272:64:64-i64:64-i128:128-f80:128-n8:16:32:64-S128"
target triple = "x86_64-unknown-linux-gnu"

%struct.SCSISense = type { i8, i8, i8 }
%struct.SCSIDiskState = type { %struct.SCSIDevice, i32, i8, i8, i8, i16, i64, i64, i32, ptr, ptr, ptr, ptr, ptr, ptr, i8, i8, i16 }
%struct.SCSIDevice = type { %struct.DeviceState, ptr, ptr, i32, %struct.BlockConf, %struct.SCSISense, i8, [252 x i8], i32, %union.anon, i32, i32, i32, i32, i64, i64, i64, i32, i32, i32, i8, i8 }
%struct.DeviceState = type { %struct.Object, ptr, ptr, i8, i8, i64, ptr, i32, i8, ptr, %struct.NamedGPIOListHead, %struct.NamedClockListHead, %struct.BusStateHead, i32, i32, i32, %struct.ResettableState, ptr, %struct.MemReentrancyGuard }
%struct.Object = type { ptr, ptr, ptr, i32, ptr }
%struct.NamedGPIOListHead = type { ptr }
%struct.NamedClockListHead = type { ptr }
%struct.BusStateHead = type { ptr }
%struct.ResettableState = type { i32, i8, i8 }
%struct.MemReentrancyGuard = type { i8 }
%struct.BlockConf = type { ptr, i32, i32, i32, i32, i32, i32, i32, i32, i32, i32, i32, i32, i32, i32, i8, i32, i32, i32, i32 }
%union.anon = type { %struct.QTailQLink }
%struct.QTailQLink = type { ptr, ptr }
%struct.SCSIDiskReq = type { %struct.SCSIRequest, i64, i32, i32, i8, i8, %struct.iovec, %struct.QEMUIOVector, %struct.BlockAcctCookie }
%struct.SCSIRequest = type { ptr, ptr, ptr, i32, i32, i32, i16, i16, ptr, i64, %struct.SCSICommand, %struct.NotifierList, [252 x i8], i32, i8, i8, i8, i8, ptr, ptr, %union.anon.0 }
%struct.SCSICommand = type { [16 x i8], i32, i64, i64, i32 }
%struct.NotifierList = type { %struct.anon }
%struct.anon = type { ptr }
%union.anon.0 = type { %struct.QTailQLink }
%struct.iovec = type { ptr, i64 }
%struct.QEMUIOVector = type { ptr, i32, %union.anon.1 }
%union.anon.1 = type { %struct.anon.2 }
%struct.anon.2 = type { i32, %struct.iovec }
%struct.BlockAcctCookie = type { i64, i64, i32 }

@sense_code_ILLEGAL_REQ_REMOVAL_PREVENTED = external constant %struct.SCSISense, align 1
@sense_code_NOT_READY_REMOVAL_PREVENTED = external constant %struct.SCSISense, align 1

; Function Attrs: nounwind sspstrong uwtable
define internal i32 @scsi_disk_emulate_start_stop(ptr noundef %r) #0 {
entry:
  %retval = alloca i32, align 4
  %r.addr = alloca ptr, align 8
  %req = alloca ptr, align 8
  %s = alloca ptr, align 8
  %tmp = alloca ptr, align 8
  %__mptr = alloca ptr, align 8
  %tmp2 = alloca ptr, align 8
  %start = alloca i8, align 1
  %loej = alloca i8, align 1
  %pwrcnd = alloca i32, align 4
  %agg.tmp = alloca %struct.SCSISense, align 1
  %agg.tmp.coerce = alloca i24, align 4
  store ptr %r, ptr %r.addr, align 8
  %0 = load ptr, ptr %r.addr, align 8
  %req1 = getelementptr inbounds %struct.SCSIDiskReq, ptr %0, i32 0, i32 0
  store ptr %req1, ptr %req, align 8
  %1 = load ptr, ptr %req, align 8
  %dev = getelementptr inbounds %struct.SCSIRequest, ptr %1, i32 0, i32 1
  %2 = load ptr, ptr %dev, align 8
  store ptr %2, ptr %__mptr, align 8
  %3 = load ptr, ptr %__mptr, align 8
  %add.ptr = getelementptr i8, ptr %3, i64 0
  store ptr %add.ptr, ptr %tmp2, align 8
  %4 = load ptr, ptr %tmp2, align 8
  store ptr %4, ptr %tmp, align 8
  %5 = load ptr, ptr %tmp, align 8
  store ptr %5, ptr %s, align 8
  %6 = load ptr, ptr %req, align 8
  %cmd = getelementptr inbounds %struct.SCSIRequest, ptr %6, i32 0, i32 10
  %buf = getelementptr inbounds %struct.SCSICommand, ptr %cmd, i32 0, i32 0
  %arrayidx = getelementptr [16 x i8], ptr %buf, i64 0, i64 4
  %7 = load i8, ptr %arrayidx, align 4
  %conv = zext i8 %7 to i32
  %and = and i32 %conv, 1
  %tobool = icmp ne i32 %and, 0
  %frombool = zext i1 %tobool to i8
  store i8 %frombool, ptr %start, align 1
  %8 = load ptr, ptr %req, align 8
  %cmd3 = getelementptr inbounds %struct.SCSIRequest, ptr %8, i32 0, i32 10
  %buf4 = getelementptr inbounds %struct.SCSICommand, ptr %cmd3, i32 0, i32 0
  %arrayidx5 = getelementptr [16 x i8], ptr %buf4, i64 0, i64 4
  %9 = load i8, ptr %arrayidx5, align 4
  %conv6 = zext i8 %9 to i32
  %and7 = and i32 %conv6, 2
  %tobool8 = icmp ne i32 %and7, 0
  %frombool9 = zext i1 %tobool8 to i8
  store i8 %frombool9, ptr %loej, align 1
  %10 = load ptr, ptr %req, align 8
  %cmd10 = getelementptr inbounds %struct.SCSIRequest, ptr %10, i32 0, i32 10
  %buf11 = getelementptr inbounds %struct.SCSICommand, ptr %cmd10, i32 0, i32 0
  %arrayidx12 = getelementptr [16 x i8], ptr %buf11, i64 0, i64 4
  %11 = load i8, ptr %arrayidx12, align 4
  %conv13 = zext i8 %11 to i32
  %and14 = and i32 %conv13, 240
  store i32 %and14, ptr %pwrcnd, align 4
  %12 = load i32, ptr %pwrcnd, align 4
  %tobool15 = icmp ne i32 %12, 0
  br i1 %tobool15, label %if.then, label %if.end

if.then:                                          ; preds = %entry
  store i32 0, ptr %retval, align 4
  br label %return

if.end:                                           ; preds = %entry
  %13 = load ptr, ptr %s, align 8
  %features = getelementptr inbounds %struct.SCSIDiskState, ptr %13, i32 0, i32 1
  %14 = load i32, ptr %features, align 8
  %and16 = and i32 %14, 1
  %tobool17 = icmp ne i32 %and16, 0
  br i1 %tobool17, label %land.lhs.true, label %if.end48

land.lhs.true:                                    ; preds = %if.end
  %15 = load i8, ptr %loej, align 1
  %tobool18 = trunc i8 %15 to i1
  br i1 %tobool18, label %if.then20, label %if.end48

if.then20:                                        ; preds = %land.lhs.true
  %16 = load i8, ptr %start, align 1
  %tobool21 = trunc i8 %16 to i1
  br i1 %tobool21, label %if.end29, label %land.lhs.true22

land.lhs.true22:                                  ; preds = %if.then20
  %17 = load ptr, ptr %s, align 8
  %tray_open = getelementptr inbounds %struct.SCSIDiskState, ptr %17, i32 0, i32 15
  %18 = load i8, ptr %tray_open, align 8
  %tobool23 = trunc i8 %18 to i1
  br i1 %tobool23, label %if.end29, label %land.lhs.true24

land.lhs.true24:                                  ; preds = %land.lhs.true22
  %19 = load ptr, ptr %s, align 8
  %tray_locked = getelementptr inbounds %struct.SCSIDiskState, ptr %19, i32 0, i32 16
  %20 = load i8, ptr %tray_locked, align 1
  %tobool25 = trunc i8 %20 to i1
  br i1 %tobool25, label %if.then27, label %if.end29

if.then27:                                        ; preds = %land.lhs.true24
  %21 = load ptr, ptr %r.addr, align 8
  %22 = load ptr, ptr %s, align 8
  %qdev = getelementptr inbounds %struct.SCSIDiskState, ptr %22, i32 0, i32 0
  %conf = getelementptr inbounds %struct.SCSIDevice, ptr %qdev, i32 0, i32 4
  %blk = getelementptr inbounds %struct.BlockConf, ptr %conf, i32 0, i32 0
  %23 = load ptr, ptr %blk, align 8
  %call = call zeroext i1 @blk_is_inserted(ptr noundef %23)
  br i1 %call, label %cond.true, label %cond.false

cond.true:                                        ; preds = %if.then27
  call void @llvm.memcpy.p0.p0.i64(ptr align 1 %agg.tmp, ptr align 1 @sense_code_ILLEGAL_REQ_REMOVAL_PREVENTED, i64 3, i1 false)
  br label %cond.end

cond.false:                                       ; preds = %if.then27
  call void @llvm.memcpy.p0.p0.i64(ptr align 1 %agg.tmp, ptr align 1 @sense_code_NOT_READY_REMOVAL_PREVENTED, i64 3, i1 false)
  br label %cond.end

cond.end:                                         ; preds = %cond.false, %cond.true
  call void @llvm.memcpy.p0.p0.i64(ptr align 4 %agg.tmp.coerce, ptr align 1 %agg.tmp, i64 3, i1 false)
  %24 = load i24, ptr %agg.tmp.coerce, align 4
  call void @scsi_check_condition(ptr noundef %21, i24 %24)
  store i32 -1, ptr %retval, align 4
  br label %return

if.end29:                                         ; preds = %land.lhs.true24, %land.lhs.true22, %if.then20
  %25 = load ptr, ptr %s, align 8
  %tray_open30 = getelementptr inbounds %struct.SCSIDiskState, ptr %25, i32 0, i32 15
  %26 = load i8, ptr %tray_open30, align 8
  %tobool31 = trunc i8 %26 to i1
  %conv32 = zext i1 %tobool31 to i32
  %27 = load i8, ptr %start, align 1
  %tobool33 = trunc i8 %27 to i1
  %lnot = xor i1 %tobool33, true
  %lnot.ext = zext i1 %lnot to i32
  %cmp = icmp ne i32 %conv32, %lnot.ext
  br i1 %cmp, label %if.then35, label %if.end47

if.then35:                                        ; preds = %if.end29
  %28 = load ptr, ptr %s, align 8
  %qdev36 = getelementptr inbounds %struct.SCSIDiskState, ptr %28, i32 0, i32 0
  %conf37 = getelementptr inbounds %struct.SCSIDevice, ptr %qdev36, i32 0, i32 4
  %blk38 = getelementptr inbounds %struct.BlockConf, ptr %conf37, i32 0, i32 0
  %29 = load ptr, ptr %blk38, align 8
  %30 = load i8, ptr %start, align 1
  %tobool39 = trunc i8 %30 to i1
  %lnot40 = xor i1 %tobool39, true
  call void @blk_eject(ptr noundef %29, i1 noundef zeroext %lnot40)
  %31 = load i8, ptr %start, align 1
  %tobool42 = trunc i8 %31 to i1
  %lnot43 = xor i1 %tobool42, true
  %32 = load ptr, ptr %s, align 8
  %tray_open45 = getelementptr inbounds %struct.SCSIDiskState, ptr %32, i32 0, i32 15
  %frombool46 = zext i1 %lnot43 to i8
  store i8 %frombool46, ptr %tray_open45, align 8
  br label %if.end47

if.end47:                                         ; preds = %if.then35, %if.end29
  br label %if.end48

if.end48:                                         ; preds = %if.end47, %land.lhs.true, %if.end
  store i32 0, ptr %retval, align 4
  br label %return

return:                                           ; preds = %if.end48, %cond.end, %if.then
  %33 = load i32, ptr %retval, align 4
  ret i32 %33
}