; Function Attrs: nounwind sspstrong uwtable
define internal fastcc range(i32 -1, 1) i32 @scsi_disk_emulate_start_stop(ptr noundef %r) unnamed_addr #0 {
entry:
  %dev = getelementptr inbounds nuw i8, ptr %r, i64 8
  %0 = load ptr, ptr %dev, align 8
  %arrayidx = getelementptr i8, ptr %r, i64 60
  %1 = load i8, ptr %arrayidx, align 4
  %conv = zext i8 %1 to i32
  %and = and i32 %conv, 1
  %tobool.not = icmp eq i32 %and, 0
  %tobool15.not = icmp ult i8 %1, 16
  br i1 %tobool15.not, label %if.end, label %return

if.end:                                           ; preds = %entry
  %and7 = and i32 %conv, 2
  %tobool8.not = icmp eq i32 %and7, 0
  %features = getelementptr inbounds nuw i8, ptr %0, i64 608
  %2 = load i32, ptr %features, align 8
  %and16 = and i32 %2, 1
  %tobool17.not = icmp eq i32 %and16, 0
  %brmerge = or i1 %tobool8.not, %tobool17.not
  br i1 %brmerge, label %return, label %if.then20

if.then20:                                        ; preds = %if.end
  %tray_open = getelementptr inbounds nuw i8, ptr %0, i64 696
  %3 = load i8, ptr %tray_open, align 8
  br i1 %tobool.not, label %land.lhs.true22, label %if.end29

land.lhs.true22:                                  ; preds = %if.then20
  %tobool23 = trunc i8 %3 to i1
  br i1 %tobool23, label %if.end29, label %land.lhs.true24

land.lhs.true24:                                  ; preds = %land.lhs.true22
  %tray_locked = getelementptr inbounds nuw i8, ptr %0, i64 697
  %4 = load i8, ptr %tray_locked, align 1
  %tobool25 = trunc i8 %4 to i1
  br i1 %tobool25, label %if.then27, label %if.end29

if.then27:                                        ; preds = %land.lhs.true24
  %conf = getelementptr inbounds nuw i8, ptr %0, i64 184
  %5 = load ptr, ptr %conf, align 8
  %call = tail call zeroext i1 @blk_is_inserted(ptr noundef %5) #18
  %sense_code_ILLEGAL_REQ_REMOVAL_PREVENTED.val = load i24, ptr @sense_code_ILLEGAL_REQ_REMOVAL_PREVENTED, align 1
  %sense_code_NOT_READY_REMOVAL_PREVENTED.val = load i24, ptr @sense_code_NOT_READY_REMOVAL_PREVENTED, align 1
  %agg.tmp.sroa.0.0 = select i1 %call, i24 %sense_code_ILLEGAL_REQ_REMOVAL_PREVENTED.val, i24 %sense_code_NOT_READY_REMOVAL_PREVENTED.val
  tail call fastcc void @scsi_check_condition(ptr noundef nonnull %r, i24 %agg.tmp.sroa.0.0)
  br label %return

if.end29:                                         ; preds = %if.then20, %land.lhs.true24, %land.lhs.true22
  %6 = and i8 %3, 1
  %conv32 = zext nneg i8 %6 to i32
  %cmp.not.not = icmp eq i32 %and, %conv32
  br i1 %cmp.not.not, label %if.then35, label %return

if.then35:                                        ; preds = %if.end29
  %tray_open30 = getelementptr inbounds nuw i8, ptr %0, i64 696
  %conf37 = getelementptr inbounds nuw i8, ptr %0, i64 184
  %7 = load ptr, ptr %conf37, align 8
  tail call void @blk_eject(ptr noundef %7, i1 noundef zeroext %tobool.not) #18
  %8 = trunc nuw nsw i32 %and to i8
  %frombool46 = xor i8 %8, 1
  store i8 %frombool46, ptr %tray_open30, align 8
  br label %return

return:                                           ; preds = %if.then35, %if.end29, %if.end, %entry, %if.then27
  %retval.0 = phi i32 [ -1, %if.then27 ], [ 0, %entry ], [ 0, %if.end ], [ 0, %if.end29 ], [ 0, %if.then35 ]
  ret i32 %retval.0
}